target datalayout = "e-m:e-p270:32:32-p271:32:32-p272:64:64-i64:64-i128:128-f80:128-n8:16:32:64-S128"
target triple = "x86_64-unknown-linux-gnu"

%"class.tf::Graph" = type { %"class.std::vector.3" }
%"class.std::vector.3" = type { %"struct.std::_Vector_base.4" }
%"struct.std::_Vector_base.4" = type { %"struct.std::_Vector_base<tf::Node *, std::allocator<tf::Node *>>::_Vector_impl" }
%"struct.std::_Vector_base<tf::Node *, std::allocator<tf::Node *>>::_Vector_impl" = type { %"struct.std::_Vector_base<tf::Node *, std::allocator<tf::Node *>>::_Vector_impl_data" }
%"struct.std::_Vector_base<tf::Node *, std::allocator<tf::Node *>>::_Vector_impl_data" = type { ptr, ptr, ptr }
%"class.tf::DataPipeline" = type { %"class.tf::Graph", i64, %"class.std::tuple", %"struct.std::array", %"class.std::vector.76", %"class.std::vector.81", %"class.std::vector.86", %"class.std::vector.91" }
%"class.std::tuple" = type { %"struct.std::_Tuple_impl" }
%"struct.std::_Tuple_impl" = type { %"struct.std::_Tuple_impl.64", %"struct.std::_Head_base.71" }
%"struct.std::_Tuple_impl.64" = type { %"struct.std::_Tuple_impl.65", %"struct.std::_Head_base.66" }
%"struct.std::_Tuple_impl.65" = type { %"struct.std::_Head_base" }
%"struct.std::_Head_base" = type { %"class.tf::DataPipe" }
%"class.tf::DataPipe" = type <{ i32, %class.anon, [3 x i8] }>
%class.anon = type { i8 }
%"struct.std::_Head_base.66" = type { %"class.tf::DataPipe.67" }
%"class.tf::DataPipe.67" = type <{ i32, %class.anon.68, [3 x i8] }>
%class.anon.68 = type { i8 }
%"struct.std::_Head_base.71" = type { %"class.tf::DataPipe.72" }
%"class.tf::DataPipe.72" = type <{ i32, %class.anon.73, [3 x i8] }>
%class.anon.73 = type { i8 }
%"struct.std::array" = type { [3 x %"struct.tf::DataPipeline<tf::DataPipe<void, int, (lambda at /home/dtcxzyw/WorkSpace/Projects/compilers/llvm-opt-benchmark/bench/taskflow/taskflow/examples/parallel_data_pipeline.cpp:18:57)>, tf::DataPipe<int, std::__cxx11::basic_string<char>, (lambda at /home/dtcxzyw/WorkSpace/Projects/compilers/llvm-opt-benchmark/bench/taskflow/taskflow/examples/parallel_data_pipeline.cpp:29:64)>, tf::DataPipe<std::__cxx11::basic_string<char>, void, (lambda at /home/dtcxzyw/WorkSpace/Projects/compilers/llvm-opt-benchmark/bench/taskflow/taskflow/examples/parallel_data_pipeline.cpp:34:65)>>::PipeMeta"] }
%"struct.tf::DataPipeline<tf::DataPipe<void, int, (lambda at /home/dtcxzyw/WorkSpace/Projects/compilers/llvm-opt-benchmark/bench/taskflow/taskflow/examples/parallel_data_pipeline.cpp:18:57)>, tf::DataPipe<int, std::__cxx11::basic_string<char>, (lambda at /home/dtcxzyw/WorkSpace/Projects/compilers/llvm-opt-benchmark/bench/taskflow/taskflow/examples/parallel_data_pipeline.cpp:29:64)>, tf::DataPipe<std::__cxx11::basic_string<char>, void, (lambda at /home/dtcxzyw/WorkSpace/Projects/compilers/llvm-opt-benchmark/bench/taskflow/taskflow/examples/parallel_data_pipeline.cpp:34:65)>>::PipeMeta" = type { i32 }
%"class.std::vector.76" = type { %"struct.std::_Vector_base.77" }
%"struct.std::_Vector_base.77" = type { %"struct.std::_Vector_base<std::array<tf::DataPipeline<tf::DataPipe<void, int, (lambda at /home/dtcxzyw/WorkSpace/Projects/compilers/llvm-opt-benchmark/bench/taskflow/taskflow/examples/parallel_data_pipeline.cpp:18:57)>, tf::DataPipe<int, std::__cxx11::basic_string<char>, (lambda at /home/dtcxzyw/WorkSpace/Projects/compilers/llvm-opt-benchmark/bench/taskflow/taskflow/examples/parallel_data_pipeline.cpp:29:64)>, tf::DataPipe<std::__cxx11::basic_string<char>, void, (lambda at /home/dtcxzyw/WorkSpace/Projects/compilers/llvm-opt-benchmark/bench/taskflow/taskflow/examples/parallel_data_pipeline.cpp:34:65)>>::Line, 3>, std::allocator<std::array<tf::DataPipeline<tf::DataPipe<void, int, (lambda at /home/dtcxzyw/WorkSpace/Projects/compilers/llvm-opt-benchmark/bench/taskflow/taskflow/examples/parallel_data_pipeline.cpp:18:57)>, tf::DataPipe<int, std::__cxx11::basic_string<char>, (lambda at /home/dtcxzyw/WorkSpace/Projects/compilers/llvm-opt-benchmark/bench/taskflow/taskflow/examples/parallel_data_pipeline.cpp:29:64)>, tf::DataPipe<std::__cxx11::basic_string<char>, void, (lambda at /home/dtcxzyw/WorkSpace/Projects/compilers/llvm-opt-benchmark/bench/taskflow/taskflow/examples/parallel_data_pipeline.cpp:34:65)>>::Line, 3>>>::_Vector_impl" }
%"struct.std::_Vector_base<std::array<tf::DataPipeline<tf::DataPipe<void, int, (lambda at /home/dtcxzyw/WorkSpace/Projects/compilers/llvm-opt-benchmark/bench/taskflow/taskflow/examples/parallel_data_pipeline.cpp:18:57)>, tf::DataPipe<int, std::__cxx11::basic_string<char>, (lambda at /home/dtcxzyw/WorkSpace/Projects/compilers/llvm-opt-benchmark/bench/taskflow/taskflow/examples/parallel_data_pipeline.cpp:29:64)>, tf::DataPipe<std::__cxx11::basic_string<char>, void, (lambda at /home/dtcxzyw/WorkSpace/Projects/compilers/llvm-opt-benchmark/bench/taskflow/taskflow/examples/parallel_data_pipeline.cpp:34:65)>>::Line, 3>, std::allocator<std::array<tf::DataPipeline<tf::DataPipe<void, int, (lambda at /home/dtcxzyw/WorkSpace/Projects/compilers/llvm-opt-benchmark/bench/taskflow/taskflow/examples/parallel_data_pipeline.cpp:18:57)>, tf::DataPipe<int, std::__cxx11::basic_string<char>, (lambda at /home/dtcxzyw/WorkSpace/Projects/compilers/llvm-opt-benchmark/bench/taskflow/taskflow/examples/parallel_data_pipeline.cpp:29:64)>, tf::DataPipe<std::__cxx11::basic_string<char>, void, (lambda at /home/dtcxzyw/WorkSpace/Projects/compilers/llvm-opt-benchmark/bench/taskflow/taskflow/examples/parallel_data_pipeline.cpp:34:65)>>::Line, 3>>>::_Vector_impl" = type { %"struct.std::_Vector_base<std::array<tf::DataPipeline<tf::DataPipe<void, int, (lambda at /home/dtcxzyw/WorkSpace/Projects/compilers/llvm-opt-benchmark/bench/taskflow/taskflow/examples/parallel_data_pipeline.cpp:18:57)>, tf::DataPipe<int, std::__cxx11::basic_string<char>, (lambda at /home/dtcxzyw/WorkSpace/Projects/compilers/llvm-opt-benchmark/bench/taskflow/taskflow/examples/parallel_data_pipeline.cpp:29:64)>, tf::DataPipe<std::__cxx11::basic_string<char>, void, (lambda at /home/dtcxzyw/WorkSpace/Projects/compilers/llvm-opt-benchmark/bench/taskflow/taskflow/examples/parallel_data_pipeline.cpp:34:65)>>::Line, 3>, std::allocator<std::array<tf::DataPipeline<tf::DataPipe<void, int, (lambda at /home/dtcxzyw/WorkSpace/Projects/compilers/llvm-opt-benchmark/bench/taskflow/taskflow/examples/parallel_data_pipeline.cpp:18:57)>, tf::DataPipe<int, std::__cxx11::basic_string<char>, (lambda at /home/dtcxzyw/WorkSpace/Projects/compilers/llvm-opt-benchmark/bench/taskflow/taskflow/examples/parallel_data_pipeline.cpp:29:64)>, tf::DataPipe<std::__cxx11::basic_string<char>, void, (lambda at /home/dtcxzyw/WorkSpace/Projects/compilers/llvm-opt-benchmark/bench/taskflow/taskflow/examples/parallel_data_pipeline.cpp:34:65)>>::Line, 3>>>::_Vector_impl_data" }
%"struct.std::_Vector_base<std::array<tf::DataPipeline<tf::DataPipe<void, int, (lambda at /home/dtcxzyw/WorkSpace/Projects/compilers/llvm-opt-benchmark/bench/taskflow/taskflow/examples/parallel_data_pipeline.cpp:18:57)>, tf::DataPipe<int, std::__cxx11::basic_string<char>, (lambda at /home/dtcxzyw/WorkSpace/Projects/compilers/llvm-opt-benchmark/bench/taskflow/taskflow/examples/parallel_data_pipeline.cpp:29:64)>, tf::DataPipe<std::__cxx11::basic_string<char>, void, (lambda at /home/dtcxzyw/WorkSpace/Projects/compilers/llvm-opt-benchmark/bench/taskflow/taskflow/examples/parallel_data_pipeline.cpp:34:65)>>::Line, 3>, std::allocator<std::array<tf::DataPipeline<tf::DataPipe<void, int, (lambda at /home/dtcxzyw/WorkSpace/Projects/compilers/llvm-opt-benchmark/bench/taskflow/taskflow/examples/parallel_data_pipeline.cpp:18:57)>, tf::DataPipe<int, std::__cxx11::basic_string<char>, (lambda at /home/dtcxzyw/WorkSpace/Projects/compilers/llvm-opt-benchmark/bench/taskflow/taskflow/examples/parallel_data_pipeline.cpp:29:64)>, tf::DataPipe<std::__cxx11::basic_string<char>, void, (lambda at /home/dtcxzyw/WorkSpace/Projects/compilers/llvm-opt-benchmark/bench/taskflow/taskflow/examples/parallel_data_pipeline.cpp:34:65)>>::Line, 3>>>::_Vector_impl_data" = type { ptr, ptr, ptr }
%"class.std::vector.81" = type { %"struct.std::_Vector_base.82" }
%"struct.std::_Vector_base.82" = type { %"struct.std::_Vector_base<tf::Task, std::allocator<tf::Task>>::_Vector_impl" }
%"struct.std::_Vector_base<tf::Task, std::allocator<tf::Task>>::_Vector_impl" = type { %"struct.std::_Vector_base<tf::Task, std::allocator<tf::Task>>::_Vector_impl_data" }
%"struct.std::_Vector_base<tf::Task, std::allocator<tf::Task>>::_Vector_impl_data" = type { ptr, ptr, ptr }
%"class.std::vector.86" = type { %"struct.std::_Vector_base.87" }
%"struct.std::_Vector_base.87" = type { %"struct.std::_Vector_base<tf::Pipeflow, std::allocator<tf::Pipeflow>>::_Vector_impl" }
%"struct.std::_Vector_base<tf::Pipeflow, std::allocator<tf::Pipeflow>>::_Vector_impl" = type { %"struct.std::_Vector_base<tf::Pipeflow, std::allocator<tf::Pipeflow>>::_Vector_impl_data" }
%"struct.std::_Vector_base<tf::Pipeflow, std::allocator<tf::Pipeflow>>::_Vector_impl_data" = type { ptr, ptr, ptr }
%"class.std::vector.91" = type { %"struct.std::_Vector_base.92" }
%"struct.std::_Vector_base.92" = type { %"struct.std::_Vector_base<tf::CachelineAligned<std::variant<int, std::__cxx11::basic_string<char>, std::monostate>>, std::allocator<tf::CachelineAligned<std::variant<int, std::__cxx11::basic_string<char>, std::monostate>>>>::_Vector_impl" }
%"struct.std::_Vector_base<tf::CachelineAligned<std::variant<int, std::__cxx11::basic_string<char>, std::monostate>>, std::allocator<tf::CachelineAligned<std::variant<int, std::__cxx11::basic_string<char>, std::monostate>>>>::_Vector_impl" = type { %"struct.std::_Vector_base<tf::CachelineAligned<std::variant<int, std::__cxx11::basic_string<char>, std::monostate>>, std::allocator<tf::CachelineAligned<std::variant<int, std::__cxx11::basic_string<char>, std::monostate>>>>::_Vector_impl_data" }
%"struct.std::_Vector_base<tf::CachelineAligned<std::variant<int, std::__cxx11::basic_string<char>, std::monostate>>, std::allocator<tf::CachelineAligned<std::variant<int, std::__cxx11::basic_string<char>, std::monostate>>>>::_Vector_impl_data" = type { ptr, ptr, ptr }
%class.anon.537 = type { ptr }

; Function Attrs: mustprogress nounwind uwtable
define linkonce_odr dso_local noundef i64 @_ZNKSt6vectorIN2tf8PipeflowESaIS1_EE4sizeEv(ptr noundef nonnull align 8 dereferenceable(24) %this) #5 comdat align 2 {
entry:
  %this.addr = alloca ptr, align 8
  store ptr %this, ptr %this.addr, align 8
  %this1 = load ptr, ptr %this.addr, align 8
  %_M_impl = getelementptr inbounds %"struct.std::_Vector_base.87", ptr %this1, i32 0, i32 0
  %_M_finish = getelementptr inbounds %"struct.std::_Vector_base<tf::Pipeflow, std::allocator<tf::Pipeflow>>::_Vector_impl_data", ptr %_M_impl, i32 0, i32 1
  %0 = load ptr, ptr %_M_finish, align 8
  %_M_impl2 = getelementptr inbounds %"struct.std::_Vector_base.87", ptr %this1, i32 0, i32 0
  %_M_start = getelementptr inbounds %"struct.std::_Vector_base<tf::Pipeflow, std::allocator<tf::Pipeflow>>::_Vector_impl_data", ptr %_M_impl2, i32 0, i32 0
  %1 = load ptr, ptr %_M_start, align 8
  %sub.ptr.lhs.cast = ptrtoint ptr %0 to i64
  %sub.ptr.rhs.cast = ptrtoint ptr %1 to i64
  %sub.ptr.sub = sub i64 %sub.ptr.lhs.cast, %sub.ptr.rhs.cast
  %sub.ptr.div = sdiv exact i64 %sub.ptr.sub, 96
  ret i64 %sub.ptr.div
}

; Function Attrs: mustprogress nounwind uwtable
define internal noundef i64 @"_ZNK2tf12DataPipelineIJNS_8DataPipeIviZ4mainE3$_0EENS1_IiNSt7__cxx1112basic_stringIcSt11char_traitsIcESaIcEEEZ4mainE3$_1EENS1_IS9_vZ4mainE3$_2EEEE9num_linesEv"(ptr noundef nonnull align 8 dereferenceable(168) %this) #5 align 2 {
entry:
  %this.addr = alloca ptr, align 8
  store ptr %this, ptr %this.addr, align 8
  %this1 = load ptr, ptr %this.addr, align 8
  %_pipeflows = getelementptr inbounds %"class.tf::DataPipeline", ptr %this1, i32 0, i32 6
  %call = call noundef i64 @_ZNKSt6vectorIN2tf8PipeflowESaIS1_EE4sizeEv(ptr noundef nonnull align 8 dereferenceable(24) %_pipeflows) #3
  ret i64 %call
}

; Function Attrs: mustprogress nounwind uwtable
define internal noundef i32 @"_ZZN2tf12DataPipelineIJNS_8DataPipeIviZ4mainE3$_0EENS1_IiNSt7__cxx1112basic_stringIcSt11char_traitsIcESaIcEEEZ4mainE3$_1EENS1_IS9_vZ4mainE3$_2EEEE6_buildEvENKUlvE_clEv"(ptr noundef nonnull align 8 dereferenceable(8) %this) #5 align 2 {
entry:
  %this.addr = alloca ptr, align 8
  store ptr %this, ptr %this.addr, align 8
  %this1 = load ptr, ptr %this.addr, align 8
  %0 = getelementptr inbounds %class.anon.537, ptr %this1, i32 0, i32 0
  %1 = load ptr, ptr %0, align 8
  %_num_tokens = getelementptr inbounds %"class.tf::DataPipeline", ptr %1, i32 0, i32 1
  %2 = load i64, ptr %_num_tokens, align 8
  %call = call noundef i64 @"_ZNK2tf12DataPipelineIJNS_8DataPipeIviZ4mainE3$_0EENS1_IiNSt7__cxx1112basic_stringIcSt11char_traitsIcESaIcEEEZ4mainE3$_1EENS1_IS9_vZ4mainE3$_2EEEE9num_linesEv"(ptr noundef nonnull align 8 dereferenceable(168) %1) #3
  %rem = urem i64 %2, %call
  %conv = trunc i64 %rem to i32
  ret i32 %conv
}

; Function Attrs: mustprogress nounwind uwtable
define linkonce_odr dso_local noundef ptr @_ZNKSt9_Any_data9_M_accessEv(ptr noundef nonnull align 8 dereferenceable(16) %this) #5 comdat align 2 {
entry:
  %this.addr = alloca ptr, align 8
  store ptr %this, ptr %this.addr, align 8
  %this1 = load ptr, ptr %this.addr, align 8
  %arrayidx = getelementptr inbounds [16 x i8], ptr %this1, i64 0, i64 0
  ret ptr %arrayidx
}

; Function Attrs: mustprogress uwtable
define internal noundef i32 @"_ZSt13__invoke_implIiRZN2tf12DataPipelineIJNS0_8DataPipeIviZ4mainE3$_0EENS2_IiNSt7__cxx1112basic_stringIcSt11char_traitsIcESaIcEEEZ4mainE3$_1EENS2_ISA_vZ4mainE3$_2EEEE6_buildEvEUlvE_JEET_St14__invoke_otherOT0_DpOT1_"(ptr noundef nonnull align 8 dereferenceable(8) %__f) #4 {
entry:
  %__f.addr = alloca ptr, align 8
  store ptr %__f, ptr %__f.addr, align 8
  %0 = load ptr, ptr %__f.addr, align 8
  %call = call noundef i32 @"_ZZN2tf12DataPipelineIJNS_8DataPipeIviZ4mainE3$_0EENS1_IiNSt7__cxx1112basic_stringIcSt11char_traitsIcESaIcEEEZ4mainE3$_1EENS1_IS9_vZ4mainE3$_2EEEE6_buildEvENKUlvE_clEv"(ptr noundef nonnull align 8 dereferenceable(8) %0)
  ret i32 %call
}

; Function Attrs: mustprogress nounwind uwtable
define internal noundef nonnull align 8 dereferenceable(8) ptr @"_ZNKSt9_Any_data9_M_accessIZN2tf12DataPipelineIJNS1_8DataPipeIviZ4mainE3$_0EENS3_IiNSt7__cxx1112basic_stringIcSt11char_traitsIcESaIcEEEZ4mainE3$_1EENS3_ISB_vZ4mainE3$_2EEEE6_buildEvEUlvE_EERKT_v"(ptr noundef nonnull align 8 dereferenceable(16) %this) #5 align 2 {
entry:
  %this.addr = alloca ptr, align 8
  store ptr %this, ptr %this.addr, align 8
  %this1 = load ptr, ptr %this.addr, align 8
  %call = call noundef ptr @_ZNKSt9_Any_data9_M_accessEv(ptr noundef nonnull align 8 dereferenceable(16) %this1) #3
  ret ptr %call
}

; Function Attrs: mustprogress uwtable
define internal noundef i32 @"_ZSt10__invoke_rIiRZN2tf12DataPipelineIJNS0_8DataPipeIviZ4mainE3$_0EENS2_IiNSt7__cxx1112basic_stringIcSt11char_traitsIcESaIcEEEZ4mainE3$_1EENS2_ISA_vZ4mainE3$_2EEEE6_buildEvEUlvE_JEENSt9enable_ifIX16is_invocable_r_vIT_T0_DpT1_EESJ_E4typeEOSK_DpOSL_"(ptr noundef nonnull align 8 dereferenceable(8) %__fn) #4 {
entry:
  %__fn.addr = alloca ptr, align 8
  store ptr %__fn, ptr %__fn.addr, align 8
  %0 = load ptr, ptr %__fn.addr, align 8
  %call = call noundef i32 @"_ZSt13__invoke_implIiRZN2tf12DataPipelineIJNS0_8DataPipeIviZ4mainE3$_0EENS2_IiNSt7__cxx1112basic_stringIcSt11char_traitsIcESaIcEEEZ4mainE3$_1EENS2_ISA_vZ4mainE3$_2EEEE6_buildEvEUlvE_JEET_St14__invoke_otherOT0_DpOT1_"(ptr noundef nonnull align 8 dereferenceable(8) %0)
  ret i32 %call
}

; Function Attrs: mustprogress nounwind uwtable
define internal noundef ptr @"_ZNSt14_Function_base13_Base_managerIZN2tf12DataPipelineIJNS1_8DataPipeIviZ4mainE3$_0EENS3_IiNSt7__cxx1112basic_stringIcSt11char_traitsIcESaIcEEEZ4mainE3$_1EENS3_ISB_vZ4mainE3$_2EEEE6_buildEvEUlvE_E14_M_get_pointerERKSt9_Any_data"(ptr noundef nonnull align 8 dereferenceable(16) %__source) #5 align 2 {
entry:
  %__source.addr = alloca ptr, align 8
  %__f = alloca ptr, align 8
  store ptr %__source, ptr %__source.addr, align 8
  %0 = load ptr, ptr %__source.addr, align 8
  %call = call noundef nonnull align 8 dereferenceable(8) ptr @"_ZNKSt9_Any_data9_M_accessIZN2tf12DataPipelineIJNS1_8DataPipeIviZ4mainE3$_0EENS3_IiNSt7__cxx1112basic_stringIcSt11char_traitsIcESaIcEEEZ4mainE3$_1EENS3_ISB_vZ4mainE3$_2EEEE6_buildEvEUlvE_EERKT_v"(ptr noundef nonnull align 8 dereferenceable(16) %0) #3
  store ptr %call, ptr %__f, align 8
  %1 = load ptr, ptr %__f, align 8
  ret ptr %1
}

; Function Attrs: mustprogress uwtable
define internal noundef i32 @"_ZNSt17_Function_handlerIFivEZN2tf12DataPipelineIJNS1_8DataPipeIviZ4mainE3$_0EENS3_IiNSt7__cxx1112basic_stringIcSt11char_traitsIcESaIcEEEZ4mainE3$_1EENS3_ISB_vZ4mainE3$_2EEEE6_buildEvEUlvE_E9_M_invokeERKSt9_Any_data"(ptr noundef nonnull align 8 dereferenceable(16) %__functor) #4 align 2 {
entry:
  %__functor.addr = alloca ptr, align 8
  store ptr %__functor, ptr %__functor.addr, align 8
  %0 = load ptr, ptr %__functor.addr, align 8
  %call = call noundef ptr @"_ZNSt14_Function_base13_Base_managerIZN2tf12DataPipelineIJNS1_8DataPipeIviZ4mainE3$_0EENS3_IiNSt7__cxx1112basic_stringIcSt11char_traitsIcESaIcEEEZ4mainE3$_1EENS3_ISB_vZ4mainE3$_2EEEE6_buildEvEUlvE_E14_M_get_pointerERKSt9_Any_data"(ptr noundef nonnull align 8 dereferenceable(16) %0) #3
  %call1 = call noundef i32 @"_ZSt10__invoke_rIiRZN2tf12DataPipelineIJNS0_8DataPipeIviZ4mainE3$_0EENS2_IiNSt7__cxx1112basic_stringIcSt11char_traitsIcESaIcEEEZ4mainE3$_1EENS2_ISA_vZ4mainE3$_2EEEE6_buildEvEUlvE_JEENSt9enable_ifIX16is_invocable_r_vIT_T0_DpT1_EESJ_E4typeEOSK_DpOSL_"(ptr noundef nonnull align 8 dereferenceable(8) %call)
  ret i32 %call1
}